; ModuleID = '9/653.c'
source_filename = "9/653.c"
target datalayout = "e-m:e-p270:32:32-p271:32:32-p272:64:64-i64:64-f80:128-n8:16:32:64-S128"
target triple = "x86_64-pc-linux-gnu"

@.str = private unnamed_addr constant [3 x i8] c"%d\00", align 1
@.str.1 = private unnamed_addr constant [5 x i8] c"%s%d\00", align 1
@.str.2 = private unnamed_addr constant [4 x i8] c"%s\0A\00", align 1

; Function Attrs: noinline nounwind uwtable
define dso_local i32 @main() #0 {
  %1 = alloca i32, align 4
  %2 = alloca i32, align 4
  %3 = alloca i32, align 4
  %4 = alloca i32, align 4
  %5 = alloca i32, align 4
  %6 = alloca i32, align 4
  %7 = alloca i32, align 4
  %8 = alloca i32, align 4
  %9 = alloca i32, align 4
  %10 = alloca [100 x i32], align 16
  %11 = alloca [100 x i32], align 16
  %12 = alloca [100 x [10 x i8]], align 16
  store i32 0, i32* %1, align 4
  store i32 1, i32* %9, align 4
  %13 = bitcast [100 x i32]* %10 to i8*
  call void @llvm.memset.p0i8.i64(i8* align 16 %13, i8 0, i64 400, i1 false)
  %14 = bitcast [100 x i32]* %11 to i8*
  call void @llvm.memset.p0i8.i64(i8* align 16 %14, i8 0, i64 400, i1 false)
  %15 = bitcast [100 x [10 x i8]]* %12 to i8*
  call void @llvm.memset.p0i8.i64(i8* align 16 %15, i8 0, i64 1000, i1 false)
  %16 = bitcast i8* %15 to <{ <{ i8, [9 x i8] }>, [99 x <{ i8, [9 x i8] }>] }>*
  %17 = getelementptr inbounds <{ <{ i8, [9 x i8] }>, [99 x <{ i8, [9 x i8] }>] }>, <{ <{ i8, [9 x i8] }>, [99 x <{ i8, [9 x i8] }>] }>* %16, i32 0, i32 0
  %18 = getelementptr inbounds <{ i8, [9 x i8] }>, <{ i8, [9 x i8] }>* %17, i32 0, i32 0
  store i8 48, i8* %18, align 16
  %19 = call i32 (i8*, ...) @__isoc99_scanf(i8* getelementptr inbounds ([3 x i8], [3 x i8]* @.str, i64 0, i64 0), i32* %2)
  store i32 0, i32* %3, align 4
  br label %20

20:                                               ; preds = %37, %0
  %21 = load i32, i32* %3, align 4
  %22 = load i32, i32* %2, align 4
  %23 = icmp slt i32 %21, %22
  br i1 %23, label %24, label %40

24:                                               ; preds = %20
  %25 = load i32, i32* %3, align 4
  %26 = load i32, i32* %3, align 4
  %27 = sext i32 %26 to i64
  %28 = getelementptr inbounds [100 x i32], [100 x i32]* %11, i64 0, i64 %27
  store i32 %25, i32* %28, align 4
  %29 = load i32, i32* %3, align 4
  %30 = sext i32 %29 to i64
  %31 = getelementptr inbounds [100 x [10 x i8]], [100 x [10 x i8]]* %12, i64 0, i64 %30
  %32 = getelementptr inbounds [10 x i8], [10 x i8]* %31, i64 0, i64 0
  %33 = load i32, i32* %3, align 4
  %34 = sext i32 %33 to i64
  %35 = getelementptr inbounds [100 x i32], [100 x i32]* %10, i64 0, i64 %34
  %36 = call i32 (i8*, ...) @__isoc99_scanf(i8* getelementptr inbounds ([5 x i8], [5 x i8]* @.str.1, i64 0, i64 0), i8* %32, i32* %35)
  br label %37

37:                                               ; preds = %24
  %38 = load i32, i32* %3, align 4
  %39 = add nsw i32 %38, 1
  store i32 %39, i32* %3, align 4
  br label %20

40:                                               ; preds = %20
  store i32 0, i32* %3, align 4
  br label %41

41:                                               ; preds = %140, %40
  %42 = load i32, i32* %9, align 4
  %43 = icmp ne i32 %42, 0
  br i1 %43, label %44, label %143

44:                                               ; preds = %41
  store i32 0, i32* %8, align 4
  store i32 0, i32* %9, align 4
  %45 = load i32, i32* %3, align 4
  %46 = sext i32 %45 to i64
  %47 = getelementptr inbounds [100 x i32], [100 x i32]* %11, i64 0, i64 %46
  %48 = load i32, i32* %47, align 4
  store i32 %48, i32* %6, align 4
  store i32 0, i32* %4, align 4
  br label %49

49:                                               ; preds = %76, %44
  %50 = load i32, i32* %4, align 4
  %51 = load i32, i32* %2, align 4
  %52 = icmp slt i32 %50, %51
  br i1 %52, label %53, label %79

53:                                               ; preds = %49
  %54 = load i32, i32* %4, align 4
  %55 = sext i32 %54 to i64
  %56 = getelementptr inbounds [100 x i32], [100 x i32]* %10, i64 0, i64 %55
  %57 = load i32, i32* %56, align 4
  %58 = icmp sge i32 %57, 60
  br i1 %58, label %59, label %75

59:                                               ; preds = %53
  %60 = load i32, i32* %4, align 4
  %61 = sext i32 %60 to i64
  %62 = getelementptr inbounds [100 x i32], [100 x i32]* %10, i64 0, i64 %61
  %63 = load i32, i32* %62, align 4
  %64 = load i32, i32* %8, align 4
  %65 = icmp sgt i32 %63, %64
  br i1 %65, label %66, label %75

66:                                               ; preds = %59
  store i32 1, i32* %9, align 4
  %67 = load i32, i32* %4, align 4
  %68 = sext i32 %67 to i64
  %69 = getelementptr inbounds [100 x i32], [100 x i32]* %10, i64 0, i64 %68
  %70 = load i32, i32* %69, align 4
  store i32 %70, i32* %8, align 4
  %71 = load i32, i32* %4, align 4
  %72 = load i32, i32* %3, align 4
  %73 = sext i32 %72 to i64
  %74 = getelementptr inbounds [100 x i32], [100 x i32]* %11, i64 0, i64 %73
  store i32 %71, i32* %74, align 4
  br label %75

75:                                               ; preds = %66, %59, %53
  br label %76

76:                                               ; preds = %75
  %77 = load i32, i32* %4, align 4
  %78 = add nsw i32 %77, 1
  store i32 %78, i32* %4, align 4
  br label %49

79:                                               ; preds = %49
  %80 = load i32, i32* %3, align 4
  %81 = add nsw i32 %80, 1
  store i32 %81, i32* %7, align 4
  br label %82

82:                                               ; preds = %98, %79
  %83 = load i32, i32* %7, align 4
  %84 = load i32, i32* %2, align 4
  %85 = icmp slt i32 %83, %84
  br i1 %85, label %86, label %101

86:                                               ; preds = %82
  %87 = load i32, i32* %7, align 4
  %88 = sext i32 %87 to i64
  %89 = getelementptr inbounds [100 x i32], [100 x i32]* %11, i64 0, i64 %88
  %90 = load i32, i32* %89, align 4
  %91 = load i32, i32* %3, align 4
  %92 = sext i32 %91 to i64
  %93 = getelementptr inbounds [100 x i32], [100 x i32]* %11, i64 0, i64 %92
  %94 = load i32, i32* %93, align 4
  %95 = icmp eq i32 %90, %94
  br i1 %95, label %96, label %97

96:                                               ; preds = %86
  br label %101

97:                                               ; preds = %86
  br label %98

98:                                               ; preds = %97
  %99 = load i32, i32* %7, align 4
  %100 = add nsw i32 %99, 1
  store i32 %100, i32* %7, align 4
  br label %82

101:                                              ; preds = %96, %82
  %102 = load i32, i32* %3, align 4
  %103 = sext i32 %102 to i64
  %104 = getelementptr inbounds [100 x i32], [100 x i32]* %11, i64 0, i64 %103
  %105 = load i32, i32* %104, align 4
  %106 = sext i32 %105 to i64
  %107 = getelementptr inbounds [100 x i32], [100 x i32]* %10, i64 0, i64 %106
  store i32 0, i32* %107, align 4
  %108 = load i32, i32* %9, align 4
  %109 = icmp ne i32 %108, 0
  br i1 %109, label %110, label %140

110:                                              ; preds = %101
  %111 = load i32, i32* %7, align 4
  %112 = load i32, i32* %2, align 4
  %113 = icmp ne i32 %111, %112
  br i1 %113, label %114, label %139

114:                                              ; preds = %110
  %115 = load i32, i32* %7, align 4
  store i32 %115, i32* %5, align 4
  br label %116

116:                                              ; preds = %130, %114
  %117 = load i32, i32* %5, align 4
  %118 = load i32, i32* %3, align 4
  %119 = add nsw i32 %118, 1
  %120 = icmp sge i32 %117, %119
  br i1 %120, label %121, label %133

121:                                              ; preds = %116
  %122 = load i32, i32* %5, align 4
  %123 = sub nsw i32 %122, 1
  %124 = sext i32 %123 to i64
  %125 = getelementptr inbounds [100 x i32], [100 x i32]* %11, i64 0, i64 %124
  %126 = load i32, i32* %125, align 4
  %127 = load i32, i32* %5, align 4
  %128 = sext i32 %127 to i64
  %129 = getelementptr inbounds [100 x i32], [100 x i32]* %11, i64 0, i64 %128
  store i32 %126, i32* %129, align 4
  br label %130

130:                                              ; preds = %121
  %131 = load i32, i32* %5, align 4
  %132 = add nsw i32 %131, -1
  store i32 %132, i32* %5, align 4
  br label %116

133:                                              ; preds = %116
  %134 = load i32, i32* %6, align 4
  %135 = load i32, i32* %3, align 4
  %136 = add nsw i32 %135, 1
  %137 = sext i32 %136 to i64
  %138 = getelementptr inbounds [100 x i32], [100 x i32]* %11, i64 0, i64 %137
  store i32 %134, i32* %138, align 4
  br label %139

139:                                              ; preds = %133, %110
  br label %140

140:                                              ; preds = %139, %101
  %141 = load i32, i32* %3, align 4
  %142 = add nsw i32 %141, 1
  store i32 %142, i32* %3, align 4
  br label %41

143:                                              ; preds = %41
  store i32 0, i32* %3, align 4
  br label %144

144:                                              ; preds = %157, %143
  %145 = load i32, i32* %3, align 4
  %146 = load i32, i32* %2, align 4
  %147 = icmp slt i32 %145, %146
  br i1 %147, label %148, label %160

148:                                              ; preds = %144
  %149 = load i32, i32* %3, align 4
  %150 = sext i32 %149 to i64
  %151 = getelementptr inbounds [100 x i32], [100 x i32]* %11, i64 0, i64 %150
  %152 = load i32, i32* %151, align 4
  %153 = sext i32 %152 to i64
  %154 = getelementptr inbounds [100 x [10 x i8]], [100 x [10 x i8]]* %12, i64 0, i64 %153
  %155 = getelementptr inbounds [10 x i8], [10 x i8]* %154, i64 0, i64 0
  %156 = call i32 (i8*, ...) @printf(i8* getelementptr inbounds ([4 x i8], [4 x i8]* @.str.2, i64 0, i64 0), i8* %155)
  br label %157

157:                                              ; preds = %148
  %158 = load i32, i32* %3, align 4
  %159 = add nsw i32 %158, 1
  store i32 %159, i32* %3, align 4
  br label %144

160:                                              ; preds = %144
  %161 = load i32, i32* %1, align 4
  ret i32 %161
}

; Function Attrs: argmemonly nounwind willreturn
declare void @llvm.memset.p0i8.i64(i8* nocapture writeonly, i8, i64, i1 immarg) #1

declare dso_local i32 @__isoc99_scanf(i8*, ...) #2

declare dso_local i32 @printf(i8*, ...) #2


!llvm.module.flags = !{!0}
!llvm.ident = !{!1}

!0 = !{i32 1, !"wchar_size", i32 4}
!1 = !{!"clang version 10.0.0-4ubuntu1 "}
